; Function Attrs: mustprogress uwtable
define noundef i32 @_ZNK2cv5MatOp4typeERKNS_7MatExprE(ptr nocapture nonnull readnone align 8 %0, ptr noundef nonnull align 8 dereferenceable(352) %1) unnamed_addr #8 align 2 personality ptr @__gxx_personality_v0 {
  %3 = alloca %"class.cv::utils::trace::details::Region", align 8
  call void @_ZN2cv5utils5trace7details6RegionC1ERKNS3_21LocationStaticStorageE(ptr noundef nonnull align 8 dereferenceable(12) %3, ptr noundef nonnull align 8 dereferenceable(32) @_ZZNK2cv5MatOp4typeERKNS_7MatExprEE25__cv_trace_location_fn605)
  %4 = getelementptr inbounds i8, ptr %1, i64 16
  %5 = invoke noundef zeroext i1 @_ZNK2cv3Mat5emptyEv(ptr noundef nonnull align 8 dereferenceable(96) %4)
          to label %6 unwind label %20

6:                                                ; preds = %2
  br i1 %5, label %7, label %12

7:                                                ; preds = %6
  %8 = getelementptr inbounds i8, ptr %1, i64 112
  %9 = invoke noundef zeroext i1 @_ZNK2cv3Mat5emptyEv(ptr noundef nonnull align 8 dereferenceable(96) %8)
          to label %10 unwind label %20

10:                                               ; preds = %7
  %11 = getelementptr inbounds i8, ptr %1, i64 208
  %spec.select = select i1 %9, ptr %8, ptr %11
  br label %12

12:                                               ; preds = %10, %6
  %.in.in = phi ptr [ %4, %6 ], [ %spec.select, %10 ]
  %.in = load i32, ptr %.in.in, align 8
  %13 = getelementptr inbounds i8, ptr %3, i64 8
  %14 = load i32, ptr %13, align 8
  %.not.i = icmp eq i32 %14, 0
  br i1 %.not.i, label %_ZN2cv5utils5trace7details6RegionD2Ev.exit, label %15

15:                                               ; preds = %12
  invoke void @_ZN2cv5utils5trace7details6Region7destroyEv(ptr noundef nonnull align 8 dereferenceable(12) %3)
          to label %_ZN2cv5utils5trace7details6RegionD2Ev.exit unwind label %16

16:                                               ; preds = %15
  %17 = landingpad { ptr, i32 }
          catch ptr null
  %18 = extractvalue { ptr, i32 } %17, 0
  call void @__clang_call_terminate(ptr %18) #20
  unreachable

_ZN2cv5utils5trace7details6RegionD2Ev.exit:       ; preds = %12, %15
  %19 = and i32 %.in, 4095
  ret i32 %19

20:                                               ; preds = %7, %2
  %21 = landingpad { ptr, i32 }
          cleanup
  call void @_ZN2cv5utils5trace7details6RegionD2Ev(ptr noundef nonnull align 8 dereferenceable(12) %3) #21
  resume { ptr, i32 } %21
}